target datalayout = "e-m:e-p270:32:32-p271:32:32-p272:64:64-i64:64-i128:128-f80:128-n8:16:32:64-S128"
target triple = "x86_64-pc-linux-gnu"

%struct.timeval = type { i64, i64 }
%struct.connection = type { i32, ptr, i32, %struct.timeval, ptr, i32 }

@.str.5 = private unnamed_addr constant [6 x i8] c"nEND\0A\00", align 1
@.str.10 = private unnamed_addr constant [4 x i8] c"cmd\00", align 1
@.str.11 = private unnamed_addr constant [111 x i8] c"generated/home/dtcxzyw/WorkSpace/Projects/compilers/llvm-opt-benchmark/bench/clamav/clamav/clamdtop/clamdtop.c\00", align 1
@__PRETTY_FUNCTION__.send_string_noreconn = private unnamed_addr constant [49 x i8] c"int send_string_noreconn(conn_t *, const char *)\00", align 1
@.str.12 = private unnamed_addr constant [21 x i8] c"conn && conn->sd > 0\00", align 1
@.str.60 = private unnamed_addr constant [8 x i8] c"len > 0\00", align 1
@__PRETTY_FUNCTION__.recv_line = private unnamed_addr constant [40 x i8] c"int recv_line(conn_t *, char *, size_t)\00", align 1
@.str.61 = private unnamed_addr constant [5 x i8] c"conn\00", align 1
@.str.62 = private unnamed_addr constant [4 x i8] c"buf\00", align 1
@.str.63 = private unnamed_addr constant [13 x i8] c"conn->sd > 0\00", align 1
@.str.64 = private unnamed_addr constant [7 x i8] c"%s: %s\00", align 1
@.str.65 = private unnamed_addr constant [21 x i8] c"len <= (size_t)nread\00", align 1
@.str.66 = private unnamed_addr constant [34 x i8] c"nread > 0 && (size_t)nread == len\00", align 1

; Function Attrs: nounwind uwtable
define internal i32 @send_string_noreconn(ptr noundef %0, ptr noundef %1) #0 {
  %3 = alloca ptr, align 8
  %4 = alloca ptr, align 8
  store ptr %0, ptr %3, align 8
  store ptr %1, ptr %4, align 8
  %5 = load ptr, ptr %4, align 8
  %6 = icmp ne ptr %5, null
  br i1 %6, label %7, label %8

7:                                                ; preds = %2
  br label %9

8:                                                ; preds = %2
  call void @__assert_fail(ptr noundef @.str.10, ptr noundef @.str.11, i32 noundef 823, ptr noundef @__PRETTY_FUNCTION__.send_string_noreconn) #17
  unreachable

9:                                                ; preds = %7
  %10 = load ptr, ptr %3, align 8
  %11 = icmp ne ptr %10, null
  br i1 %11, label %12, label %18

12:                                               ; preds = %9
  %13 = load ptr, ptr %3, align 8
  %14 = getelementptr inbounds %struct.connection, ptr %13, i32 0, i32 0
  %15 = load i32, ptr %14, align 8
  %16 = icmp sgt i32 %15, 0
  br i1 %16, label %17, label %18

17:                                               ; preds = %12
  br label %19

18:                                               ; preds = %12, %9
  call void @__assert_fail(ptr noundef @.str.12, ptr noundef @.str.11, i32 noundef 824, ptr noundef @__PRETTY_FUNCTION__.send_string_noreconn) #17
  unreachable

19:                                               ; preds = %17
  %20 = load ptr, ptr %3, align 8
  %21 = getelementptr inbounds %struct.connection, ptr %20, i32 0, i32 0
  %22 = load i32, ptr %21, align 8
  %23 = load ptr, ptr %4, align 8
  %24 = load ptr, ptr %4, align 8
  %25 = call i64 @strlen(ptr noundef %24) #14
  %26 = call i64 @send(i32 noundef %22, ptr noundef %23, i64 noundef %25, i32 noundef 0)
  %27 = trunc i64 %26 to i32
  ret i32 %27
}

; Function Attrs: nounwind uwtable
define internal i32 @recv_line(ptr noundef %0, ptr noundef %1, i64 noundef %2) #0 {
  %4 = alloca i32, align 4
  %5 = alloca ptr, align 8
  %6 = alloca ptr, align 8
  %7 = alloca i64, align 8
  %8 = alloca i64, align 8
  %9 = alloca ptr, align 8
  store ptr %0, ptr %5, align 8
  store ptr %1, ptr %6, align 8
  store i64 %2, ptr %7, align 8
  %10 = load i64, ptr %7, align 8
  %11 = icmp ugt i64 %10, 0
  br i1 %11, label %12, label %13

12:                                               ; preds = %3
  br label %14

13:                                               ; preds = %3
  call void @__assert_fail(ptr noundef @.str.60, ptr noundef @.str.11, i32 noundef 857, ptr noundef @__PRETTY_FUNCTION__.recv_line) #17
  unreachable

14:                                               ; preds = %12
  %15 = load ptr, ptr %5, align 8
  %16 = icmp ne ptr %15, null
  br i1 %16, label %17, label %18

17:                                               ; preds = %14
  br label %19

18:                                               ; preds = %14
  call void @__assert_fail(ptr noundef @.str.61, ptr noundef @.str.11, i32 noundef 858, ptr noundef @__PRETTY_FUNCTION__.recv_line) #17
  unreachable

19:                                               ; preds = %17
  %20 = load ptr, ptr %6, align 8
  %21 = icmp ne ptr %20, null
  br i1 %21, label %22, label %23

22:                                               ; preds = %19
  br label %24

23:                                               ; preds = %19
  call void @__assert_fail(ptr noundef @.str.62, ptr noundef @.str.11, i32 noundef 859, ptr noundef @__PRETTY_FUNCTION__.recv_line) #17
  unreachable

24:                                               ; preds = %22
  %25 = load i64, ptr %7, align 8
  %26 = add i64 %25, -1
  store i64 %26, ptr %7, align 8
  %27 = load i64, ptr %7, align 8
  %28 = icmp ne i64 %27, 0
  br i1 %28, label %29, label %34

29:                                               ; preds = %24
  %30 = load ptr, ptr %5, align 8
  %31 = getelementptr inbounds %struct.connection, ptr %30, i32 0, i32 0
  %32 = load i32, ptr %31, align 8
  %33 = icmp eq i32 %32, -1
  br i1 %33, label %34, label %35

34:                                               ; preds = %29, %24
  store i32 0, ptr %4, align 4
  br label %129

35:                                               ; preds = %29
  %36 = load ptr, ptr %5, align 8
  %37 = getelementptr inbounds %struct.connection, ptr %36, i32 0, i32 0
  %38 = load i32, ptr %37, align 8
  %39 = icmp sgt i32 %38, 0
  br i1 %39, label %40, label %41

40:                                               ; preds = %35
  br label %42

41:                                               ; preds = %35
  call void @__assert_fail(ptr noundef @.str.63, ptr noundef @.str.11, i32 noundef 864, ptr noundef @__PRETTY_FUNCTION__.recv_line) #17
  unreachable

42:                                               ; preds = %40
  br label %43

43:                                               ; preds = %126, %42
  %44 = load i64, ptr %7, align 8
  %45 = icmp ugt i64 %44, 0
  br i1 %45, label %46, label %127

46:                                               ; preds = %43
  %47 = load ptr, ptr %5, align 8
  %48 = getelementptr inbounds %struct.connection, ptr %47, i32 0, i32 0
  %49 = load i32, ptr %48, align 8
  %50 = load ptr, ptr %6, align 8
  %51 = load i64, ptr %7, align 8
  %52 = call i64 @recv(i32 noundef %49, ptr noundef %50, i64 noundef %51, i32 noundef 2)
  store i64 %52, ptr %8, align 8
  %53 = load i64, ptr %8, align 8
  %54 = icmp sle i64 %53, 0
  br i1 %54, label %55, label %71

55:                                               ; preds = %46
  %56 = load ptr, ptr %5, align 8
  %57 = load ptr, ptr %5, align 8
  %58 = getelementptr inbounds %struct.connection, ptr %57, i32 0, i32 1
  %59 = load ptr, ptr %58, align 8
  %60 = call ptr @__errno_location() #19
  %61 = load i32, ptr %60, align 4
  %62 = call ptr @strerror(i32 noundef %61) #13
  call void (ptr, ptr, ...) @print_con_info(ptr noundef %56, ptr noundef @.str.64, ptr noundef %59, ptr noundef %62)
  %63 = load ptr, ptr %5, align 8
  %64 = call i32 @send_string_noreconn(ptr noundef %63, ptr noundef @.str.5)
  %65 = load ptr, ptr %5, align 8
  %66 = getelementptr inbounds %struct.connection, ptr %65, i32 0, i32 0
  %67 = load i32, ptr %66, align 8
  %68 = call i32 @close(i32 noundef %67)
  %69 = load ptr, ptr %5, align 8
  %70 = getelementptr inbounds %struct.connection, ptr %69, i32 0, i32 0
  store i32 -1, ptr %70, align 8
  store i32 0, ptr %4, align 4
  br label %129

71:                                               ; preds = %46
  %72 = load ptr, ptr %6, align 8
  %73 = load i64, ptr %8, align 8
  %74 = call ptr @memchr(ptr noundef %72, i32 noundef 10, i64 noundef %73) #14
  store ptr %74, ptr %9, align 8
  %75 = load ptr, ptr %9, align 8
  %76 = icmp ne ptr %75, null
  br i1 %76, label %77, label %84

77:                                               ; preds = %71
  %78 = load ptr, ptr %9, align 8
  %79 = load ptr, ptr %6, align 8
  %80 = ptrtoint ptr %78 to i64
  %81 = ptrtoint ptr %79 to i64
  %82 = sub i64 %80, %81
  %83 = add nsw i64 %82, 1
  store i64 %83, ptr %7, align 8
  br label %86

84:                                               ; preds = %71
  %85 = load i64, ptr %8, align 8
  store i64 %85, ptr %7, align 8
  br label %86

86:                                               ; preds = %84, %77
  %87 = load i64, ptr %7, align 8
  %88 = icmp ugt i64 %87, 0
  br i1 %88, label %89, label %90

89:                                               ; preds = %86
  br label %91

90:                                               ; preds = %86
  call void @__assert_fail(ptr noundef @.str.60, ptr noundef @.str.11, i32 noundef 884, ptr noundef @__PRETTY_FUNCTION__.recv_line) #17
  unreachable

91:                                               ; preds = %89
  %92 = load i64, ptr %7, align 8
  %93 = load i64, ptr %8, align 8
  %94 = icmp ule i64 %92, %93
  br i1 %94, label %95, label %96

95:                                               ; preds = %91
  br label %97

96:                                               ; preds = %91
  call void @__assert_fail(ptr noundef @.str.65, ptr noundef @.str.11, i32 noundef 885, ptr noundef @__PRETTY_FUNCTION__.recv_line) #17
  unreachable

97:                                               ; preds = %95
  %98 = load ptr, ptr %5, align 8
  %99 = getelementptr inbounds %struct.connection, ptr %98, i32 0, i32 0
  %100 = load i32, ptr %99, align 8
  %101 = load ptr, ptr %6, align 8
  %102 = load i64, ptr %7, align 8
  %103 = call i64 @recv(i32 noundef %100, ptr noundef %101, i64 noundef %102, i32 noundef 0)
  store i64 %103, ptr %8, align 8
  %104 = load i64, ptr %8, align 8
  %105 = icmp eq i64 %104, -1
  br i1 %105, label %106, label %108

106:                                              ; preds = %97
  %107 = load ptr, ptr %5, align 8
  call void @reconnect(ptr noundef %107)
  br label %121

108:                                              ; preds = %97
  %109 = load i64, ptr %8, align 8
  %110 = icmp sgt i64 %109, 0
  br i1 %110, label %111, label %116

111:                                              ; preds = %108
  %112 = load i64, ptr %8, align 8
  %113 = load i64, ptr %7, align 8
  %114 = icmp eq i64 %112, %113
  br i1 %114, label %115, label %116

115:                                              ; preds = %111
  br label %117

116:                                              ; preds = %111, %108
  call void @__assert_fail(ptr noundef @.str.66, ptr noundef @.str.11, i32 noundef 890, ptr noundef @__PRETTY_FUNCTION__.recv_line) #17
  unreachable

117:                                              ; preds = %115
  %118 = load i64, ptr %8, align 8
  %119 = load ptr, ptr %6, align 8
  %120 = getelementptr inbounds i8, ptr %119, i64 %118
  store ptr %120, ptr %6, align 8
  br label %121

121:                                              ; preds = %117, %106
  %122 = load ptr, ptr %9, align 8
  %123 = icmp ne ptr %122, null
  br i1 %123, label %124, label %125

124:                                              ; preds = %121
  br label %127

125:                                              ; preds = %121
  br label %126

126:                                              ; preds = %125
  br label %43

127:                                              ; preds = %124, %43
  %128 = load ptr, ptr %6, align 8
  store i8 0, ptr %128, align 1
  store i32 1, ptr %4, align 4
  br label %129

129:                                              ; preds = %127, %55, %34
  %130 = load i32, ptr %4, align 4
  ret i32 %130
}