; Function Attrs: nounwind uwtable
define internal fastcc noundef i32 @recv_line(ptr noundef %0, ptr noundef %1) unnamed_addr #0 {
  %.not = icmp eq ptr %0, null
  br i1 %.not, label %3, label %4

3:                                                ; preds = %2
  tail call void @__assert_fail(ptr noundef nonnull @.str.61, ptr noundef nonnull @.str.11, i32 noundef 858, ptr noundef nonnull @__PRETTY_FUNCTION__.recv_line) #30
  unreachable

4:                                                ; preds = %2
  %.not51 = icmp eq ptr %1, null
  br i1 %.not51, label %5, label %6

5:                                                ; preds = %4
  tail call void @__assert_fail(ptr noundef nonnull @.str.62, ptr noundef nonnull @.str.11, i32 noundef 859, ptr noundef nonnull @__PRETTY_FUNCTION__.recv_line) #30
  unreachable

6:                                                ; preds = %4
  %7 = load i32, ptr %0, align 8
  %8 = icmp eq i32 %7, -1
  br i1 %8, label %48, label %9

9:                                                ; preds = %6
  %10 = icmp sgt i32 %7, 0
  br i1 %10, label %.preheader, label %11

11:                                               ; preds = %9
  tail call void @__assert_fail(ptr noundef nonnull @.str.63, ptr noundef nonnull @.str.11, i32 noundef 864, ptr noundef nonnull @__PRETTY_FUNCTION__.recv_line) #30
  unreachable

.preheader:                                       ; preds = %9, %46
  %.041 = phi ptr [ %.142, %46 ], [ %1, %9 ]
  %.040 = phi i64 [ %13, %46 ], [ 1023, %9 ]
  %12 = load i32, ptr %0, align 8
  %13 = tail call i64 @recv(i32 noundef %12, ptr noundef %.041, i64 noundef %.040, i32 noundef 2) #25
  %14 = icmp slt i64 %13, 1
  br i1 %14, label %15, label %27

15:                                               ; preds = %.preheader
  %16 = getelementptr inbounds i8, ptr %0, i64 8
  %17 = load ptr, ptr %16, align 8
  %18 = tail call ptr @__errno_location() #33
  %19 = load i32, ptr %18, align 4
  %20 = tail call ptr @strerror(i32 noundef %19) #25
  tail call void (ptr, ptr, ...) @print_con_info(ptr noundef nonnull %0, ptr noundef nonnull @.str.64, ptr noundef %17, ptr noundef %20)
  %21 = load i32, ptr %0, align 8
  %22 = icmp sgt i32 %21, 0
  br i1 %22, label %send_string_noreconn.exit, label %23

23:                                               ; preds = %15
  tail call void @__assert_fail(ptr noundef nonnull @.str.12, ptr noundef nonnull @.str.11, i32 noundef 824, ptr noundef nonnull @__PRETTY_FUNCTION__.send_string_noreconn) #30
  unreachable

send_string_noreconn.exit:                        ; preds = %15
  %24 = tail call i64 @send(i32 noundef %21, ptr noundef nonnull @.str.5, i64 noundef 5, i32 noundef 0) #25
  %25 = load i32, ptr %0, align 8
  %26 = tail call i32 @close(i32 noundef %25) #25
  store i32 -1, ptr %0, align 8
  br label %48

27:                                               ; preds = %.preheader
  %28 = tail call ptr @memchr(ptr noundef %.041, i32 noundef 10, i64 noundef %13) #26
  %.not52 = icmp eq ptr %28, null
  %29 = ptrtoint ptr %28 to i64
  %30 = ptrtoint ptr %.041 to i64
  %reass.sub = sub i64 %29, %30
  %31 = add i64 %reass.sub, 1
  %.1 = select i1 %.not52, i64 %13, i64 %31
  %.not53 = icmp eq i64 %.1, 0
  br i1 %.not53, label %32, label %33

32:                                               ; preds = %27
  tail call void @__assert_fail(ptr noundef nonnull @.str.60, ptr noundef nonnull @.str.11, i32 noundef 884, ptr noundef nonnull @__PRETTY_FUNCTION__.recv_line) #30
  unreachable

33:                                               ; preds = %27
  %.not54 = icmp ugt i64 %.1, %13
  br i1 %.not54, label %34, label %35

34:                                               ; preds = %33
  tail call void @__assert_fail(ptr noundef nonnull @.str.65, ptr noundef nonnull @.str.11, i32 noundef 885, ptr noundef nonnull @__PRETTY_FUNCTION__.recv_line) #30
  unreachable

35:                                               ; preds = %33
  %36 = load i32, ptr %0, align 8
  %37 = tail call i64 @recv(i32 noundef %36, ptr noundef %.041, i64 noundef %.1, i32 noundef 0) #25
  %38 = icmp eq i64 %37, -1
  br i1 %38, label %39, label %40

39:                                               ; preds = %35
  tail call fastcc void @reconnect(ptr noundef nonnull %0)
  br label %46

40:                                               ; preds = %35
  %41 = icmp sgt i64 %37, 0
  %42 = icmp eq i64 %37, %.1
  %or.cond = and i1 %41, %42
  br i1 %or.cond, label %44, label %43

43:                                               ; preds = %40
  tail call void @__assert_fail(ptr noundef nonnull @.str.66, ptr noundef nonnull @.str.11, i32 noundef 890, ptr noundef nonnull @__PRETTY_FUNCTION__.recv_line) #30
  unreachable

44:                                               ; preds = %40
  %45 = getelementptr inbounds i8, ptr %.041, i64 %.1
  br label %46

46:                                               ; preds = %44, %39
  %.142 = phi ptr [ %.041, %39 ], [ %45, %44 ]
  br i1 %.not52, label %.preheader, label %47

47:                                               ; preds = %46
  store i8 0, ptr %.142, align 1
  br label %48

48:                                               ; preds = %6, %47, %send_string_noreconn.exit
  %.0 = phi i32 [ 0, %send_string_noreconn.exit ], [ 1, %47 ], [ 0, %6 ]
  ret i32 %.0
}